target datalayout = "e-m:e-p270:32:32-p271:32:32-p272:64:64-i64:64-i128:128-f80:128-n8:16:32:64-S128"
target triple = "x86_64-pc-linux-gnu"

%struct.pmix_object_t = type { %union.pthread_mutex_t, ptr, i32, %struct.pmix_tma }
%union.pthread_mutex_t = type { %struct.__pthread_mutex_s }
%struct.__pthread_mutex_s = type { i32, i32, i32, i32, i32, i16, i16, %struct.__pthread_internal_list }
%struct.__pthread_internal_list = type { ptr, ptr }
%struct.pmix_tma = type { ptr, ptr, ptr, ptr, ptr, ptr, ptr, ptr }
%struct.pmix_bfrop_type_info_t = type { %struct.pmix_object_t, i16, ptr, ptr, ptr, ptr, ptr }
%struct.pmix_pointer_array_t = type { %struct.pmix_object_t, i32, i32, i32, i32, i32, ptr, ptr }
%struct.pmix_query = type { ptr, ptr, i64 }

; Function Attrs: inlinehint nounwind uwtable
define internal ptr @pmix_pointer_array_get_item(ptr noundef %0, i32 noundef %1) #3 {
  %3 = alloca ptr, align 8
  %4 = alloca ptr, align 8
  %5 = alloca i32, align 4
  %6 = alloca ptr, align 8
  %7 = alloca i32, align 4
  store ptr %0, ptr %4, align 8, !tbaa !3
  store i32 %1, ptr %5, align 4, !tbaa !9
  call void @llvm.lifetime.start.p0(i64 8, ptr %6) #9
  %8 = load i32, ptr %5, align 4, !tbaa !9
  %9 = icmp sgt i32 0, %8
  br i1 %9, label %16, label %10

10:                                               ; preds = %2
  %11 = load ptr, ptr %4, align 8, !tbaa !3
  %12 = getelementptr inbounds nuw %struct.pmix_pointer_array_t, ptr %11, i32 0, i32 3
  %13 = load i32, ptr %12, align 8, !tbaa !22
  %14 = load i32, ptr %5, align 4, !tbaa !9
  %15 = icmp sle i32 %13, %14
  br label %16

16:                                               ; preds = %10, %2
  %17 = phi i1 [ true, %2 ], [ %15, %10 ]
  %18 = xor i1 %17, true
  %19 = xor i1 %18, true
  %20 = zext i1 %19 to i32
  %21 = sext i32 %20 to i64
  %22 = call i64 @llvm.expect.i64(i64 %21, i64 0)
  %23 = icmp ne i64 %22, 0
  br i1 %23, label %24, label %25

24:                                               ; preds = %16
  store ptr null, ptr %3, align 8
  store i32 1, ptr %7, align 4
  br label %34

25:                                               ; preds = %16
  %26 = load ptr, ptr %4, align 8, !tbaa !3
  %27 = getelementptr inbounds nuw %struct.pmix_pointer_array_t, ptr %26, i32 0, i32 7
  %28 = load ptr, ptr %27, align 8, !tbaa !25
  %29 = load i32, ptr %5, align 4, !tbaa !9
  %30 = sext i32 %29 to i64
  %31 = getelementptr inbounds ptr, ptr %28, i64 %30
  %32 = load ptr, ptr %31, align 8, !tbaa !8
  store ptr %32, ptr %6, align 8, !tbaa !8
  %33 = load ptr, ptr %6, align 8, !tbaa !8
  store ptr %33, ptr %3, align 8
  store i32 1, ptr %7, align 4
  br label %34

34:                                               ; preds = %25, %24
  call void @llvm.lifetime.end.p0(i64 8, ptr %6) #9
  %35 = load ptr, ptr %3, align 8
  ret ptr %35
}

; Function Attrs: nounwind uwtable
define i32 @pmix_bfrops_base_pack_query(ptr noundef %0, ptr noundef %1, ptr noundef %2, i32 noundef %3, i16 noundef zeroext %4) #0 {
  %6 = alloca i32, align 4
  %7 = alloca ptr, align 8
  %8 = alloca ptr, align 8
  %9 = alloca ptr, align 8
  %10 = alloca i32, align 4
  %11 = alloca i16, align 2
  %12 = alloca ptr, align 8
  %13 = alloca i32, align 4
  %14 = alloca i32, align 4
  %15 = alloca i32, align 4
  %16 = alloca ptr, align 8
  %17 = alloca i32, align 4
  %18 = alloca ptr, align 8
  %19 = alloca ptr, align 8
  %20 = alloca ptr, align 8
  store ptr %0, ptr %7, align 8, !tbaa !3
  store ptr %1, ptr %8, align 8, !tbaa !8
  store ptr %2, ptr %9, align 8, !tbaa !8
  store i32 %3, ptr %10, align 4, !tbaa !9
  store i16 %4, ptr %11, align 2, !tbaa !11
  call void @llvm.lifetime.start.p0(i64 8, ptr %12) #9
  %21 = load ptr, ptr %9, align 8, !tbaa !8
  store ptr %21, ptr %12, align 8, !tbaa !126
  call void @llvm.lifetime.start.p0(i64 4, ptr %13) #9
  call void @llvm.lifetime.start.p0(i64 4, ptr %14) #9
  call void @llvm.lifetime.start.p0(i64 4, ptr %15) #9
  store i32 0, ptr %14, align 4, !tbaa !9
  br label %22

22:                                               ; preds = %156, %5
  %23 = load i32, ptr %14, align 4, !tbaa !9
  %24 = load i32, ptr %10, align 4, !tbaa !9
  %25 = icmp slt i32 %23, %24
  br i1 %25, label %26, label %159

26:                                               ; preds = %22
  %27 = load ptr, ptr %12, align 8, !tbaa !126
  %28 = load i32, ptr %14, align 4, !tbaa !9
  %29 = sext i32 %28 to i64
  %30 = getelementptr inbounds %struct.pmix_query, ptr %27, i64 %29
  %31 = getelementptr inbounds nuw %struct.pmix_query, ptr %30, i32 0, i32 0
  %32 = load ptr, ptr %31, align 8, !tbaa !128
  %33 = call i32 @PMIx_Argv_count(ptr noundef %32)
  store i32 %33, ptr %15, align 4, !tbaa !9
  br label %34

34:                                               ; preds = %26
  call void @llvm.lifetime.start.p0(i64 8, ptr %16) #9
  %35 = load ptr, ptr %7, align 8, !tbaa !3
  %36 = call ptr @pmix_pointer_array_get_item(ptr noundef %35, i32 noundef 9)
  store ptr %36, ptr %16, align 8, !tbaa !8
  %37 = load ptr, ptr %16, align 8, !tbaa !8
  %38 = icmp eq ptr null, %37
  br i1 %38, label %39, label %40

39:                                               ; preds = %34
  store i32 -16, ptr %13, align 4, !tbaa !9
  br label %47

40:                                               ; preds = %34
  %41 = load ptr, ptr %16, align 8, !tbaa !8
  %42 = getelementptr inbounds nuw %struct.pmix_bfrop_type_info_t, ptr %41, i32 0, i32 3
  %43 = load ptr, ptr %42, align 8, !tbaa !20
  %44 = load ptr, ptr %7, align 8, !tbaa !3
  %45 = load ptr, ptr %8, align 8, !tbaa !8
  %46 = call i32 %43(ptr noundef %44, ptr noundef %45, ptr noundef %15, i32 noundef 1, i16 noundef zeroext 9)
  store i32 %46, ptr %13, align 4, !tbaa !9
  br label %47

47:                                               ; preds = %40, %39
  call void @llvm.lifetime.end.p0(i64 8, ptr %16) #9
  br label %48

48:                                               ; preds = %47
  br label %49

49:                                               ; preds = %48
  %50 = load i32, ptr %13, align 4, !tbaa !9
  %51 = icmp ne i32 0, %50
  br i1 %51, label %52, label %54

52:                                               ; preds = %49
  %53 = load i32, ptr %13, align 4, !tbaa !9
  store i32 %53, ptr %6, align 4
  store i32 1, ptr %17, align 4
  br label %160

54:                                               ; preds = %49
  %55 = load i32, ptr %15, align 4, !tbaa !9
  %56 = icmp slt i32 0, %55
  br i1 %56, label %57, label %86

57:                                               ; preds = %54
  br label %58

58:                                               ; preds = %57
  call void @llvm.lifetime.start.p0(i64 8, ptr %18) #9
  %59 = load ptr, ptr %7, align 8, !tbaa !3
  %60 = call ptr @pmix_pointer_array_get_item(ptr noundef %59, i32 noundef 3)
  store ptr %60, ptr %18, align 8, !tbaa !8
  %61 = load ptr, ptr %18, align 8, !tbaa !8
  %62 = icmp eq ptr null, %61
  br i1 %62, label %63, label %64

63:                                               ; preds = %58
  store i32 -16, ptr %13, align 4, !tbaa !9
  br label %78

64:                                               ; preds = %58
  %65 = load ptr, ptr %18, align 8, !tbaa !8
  %66 = getelementptr inbounds nuw %struct.pmix_bfrop_type_info_t, ptr %65, i32 0, i32 3
  %67 = load ptr, ptr %66, align 8, !tbaa !20
  %68 = load ptr, ptr %7, align 8, !tbaa !3
  %69 = load ptr, ptr %8, align 8, !tbaa !8
  %70 = load ptr, ptr %12, align 8, !tbaa !126
  %71 = load i32, ptr %14, align 4, !tbaa !9
  %72 = sext i32 %71 to i64
  %73 = getelementptr inbounds %struct.pmix_query, ptr %70, i64 %72
  %74 = getelementptr inbounds nuw %struct.pmix_query, ptr %73, i32 0, i32 0
  %75 = load ptr, ptr %74, align 8, !tbaa !128
  %76 = load i32, ptr %15, align 4, !tbaa !9
  %77 = call i32 %67(ptr noundef %68, ptr noundef %69, ptr noundef %75, i32 noundef %76, i16 noundef zeroext 3)
  store i32 %77, ptr %13, align 4, !tbaa !9
  br label %78

78:                                               ; preds = %64, %63
  call void @llvm.lifetime.end.p0(i64 8, ptr %18) #9
  br label %79

79:                                               ; preds = %78
  br label %80

80:                                               ; preds = %79
  %81 = load i32, ptr %13, align 4, !tbaa !9
  %82 = icmp ne i32 0, %81
  br i1 %82, label %83, label %85

83:                                               ; preds = %80
  %84 = load i32, ptr %13, align 4, !tbaa !9
  store i32 %84, ptr %6, align 4
  store i32 1, ptr %17, align 4
  br label %160

85:                                               ; preds = %80
  br label %86

86:                                               ; preds = %85, %54
  br label %87

87:                                               ; preds = %86
  call void @llvm.lifetime.start.p0(i64 8, ptr %19) #9
  %88 = load ptr, ptr %7, align 8, !tbaa !3
  %89 = call ptr @pmix_pointer_array_get_item(ptr noundef %88, i32 noundef 4)
  store ptr %89, ptr %19, align 8, !tbaa !8
  %90 = load ptr, ptr %19, align 8, !tbaa !8
  %91 = icmp eq ptr null, %90
  br i1 %91, label %92, label %93

92:                                               ; preds = %87
  store i32 -16, ptr %13, align 4, !tbaa !9
  br label %105

93:                                               ; preds = %87
  %94 = load ptr, ptr %19, align 8, !tbaa !8
  %95 = getelementptr inbounds nuw %struct.pmix_bfrop_type_info_t, ptr %94, i32 0, i32 3
  %96 = load ptr, ptr %95, align 8, !tbaa !20
  %97 = load ptr, ptr %7, align 8, !tbaa !3
  %98 = load ptr, ptr %8, align 8, !tbaa !8
  %99 = load ptr, ptr %12, align 8, !tbaa !126
  %100 = load i32, ptr %14, align 4, !tbaa !9
  %101 = sext i32 %100 to i64
  %102 = getelementptr inbounds %struct.pmix_query, ptr %99, i64 %101
  %103 = getelementptr inbounds nuw %struct.pmix_query, ptr %102, i32 0, i32 2
  %104 = call i32 %96(ptr noundef %97, ptr noundef %98, ptr noundef %103, i32 noundef 1, i16 noundef zeroext 4)
  store i32 %104, ptr %13, align 4, !tbaa !9
  br label %105

105:                                              ; preds = %93, %92
  call void @llvm.lifetime.end.p0(i64 8, ptr %19) #9
  br label %106

106:                                              ; preds = %105
  br label %107

107:                                              ; preds = %106
  %108 = load i32, ptr %13, align 4, !tbaa !9
  %109 = icmp ne i32 0, %108
  br i1 %109, label %110, label %112

110:                                              ; preds = %107
  %111 = load i32, ptr %13, align 4, !tbaa !9
  store i32 %111, ptr %6, align 4
  store i32 1, ptr %17, align 4
  br label %160

112:                                              ; preds = %107
  %113 = load ptr, ptr %12, align 8, !tbaa !126
  %114 = load i32, ptr %14, align 4, !tbaa !9
  %115 = sext i32 %114 to i64
  %116 = getelementptr inbounds %struct.pmix_query, ptr %113, i64 %115
  %117 = getelementptr inbounds nuw %struct.pmix_query, ptr %116, i32 0, i32 2
  %118 = load i64, ptr %117, align 8, !tbaa !130
  %119 = icmp ult i64 0, %118
  br i1 %119, label %120, label %155

120:                                              ; preds = %112
  br label %121

121:                                              ; preds = %120
  call void @llvm.lifetime.start.p0(i64 8, ptr %20) #9
  %122 = load ptr, ptr %7, align 8, !tbaa !3
  %123 = call ptr @pmix_pointer_array_get_item(ptr noundef %122, i32 noundef 24)
  store ptr %123, ptr %20, align 8, !tbaa !8
  %124 = load ptr, ptr %20, align 8, !tbaa !8
  %125 = icmp eq ptr null, %124
  br i1 %125, label %126, label %127

126:                                              ; preds = %121
  store i32 -16, ptr %13, align 4, !tbaa !9
  br label %147

127:                                              ; preds = %121
  %128 = load ptr, ptr %20, align 8, !tbaa !8
  %129 = getelementptr inbounds nuw %struct.pmix_bfrop_type_info_t, ptr %128, i32 0, i32 3
  %130 = load ptr, ptr %129, align 8, !tbaa !20
  %131 = load ptr, ptr %7, align 8, !tbaa !3
  %132 = load ptr, ptr %8, align 8, !tbaa !8
  %133 = load ptr, ptr %12, align 8, !tbaa !126
  %134 = load i32, ptr %14, align 4, !tbaa !9
  %135 = sext i32 %134 to i64
  %136 = getelementptr inbounds %struct.pmix_query, ptr %133, i64 %135
  %137 = getelementptr inbounds nuw %struct.pmix_query, ptr %136, i32 0, i32 1
  %138 = load ptr, ptr %137, align 8, !tbaa !131
  %139 = load ptr, ptr %12, align 8, !tbaa !126
  %140 = load i32, ptr %14, align 4, !tbaa !9
  %141 = sext i32 %140 to i64
  %142 = getelementptr inbounds %struct.pmix_query, ptr %139, i64 %141
  %143 = getelementptr inbounds nuw %struct.pmix_query, ptr %142, i32 0, i32 2
  %144 = load i64, ptr %143, align 8, !tbaa !130
  %145 = trunc i64 %144 to i32
  %146 = call i32 %130(ptr noundef %131, ptr noundef %132, ptr noundef %138, i32 noundef %145, i16 noundef zeroext 24)
  store i32 %146, ptr %13, align 4, !tbaa !9
  br label %147

147:                                              ; preds = %127, %126
  call void @llvm.lifetime.end.p0(i64 8, ptr %20) #9
  br label %148

148:                                              ; preds = %147
  br label %149

149:                                              ; preds = %148
  %150 = load i32, ptr %13, align 4, !tbaa !9
  %151 = icmp ne i32 0, %150
  br i1 %151, label %152, label %154

152:                                              ; preds = %149
  %153 = load i32, ptr %13, align 4, !tbaa !9
  store i32 %153, ptr %6, align 4
  store i32 1, ptr %17, align 4
  br label %160

154:                                              ; preds = %149
  br label %155

155:                                              ; preds = %154, %112
  br label %156

156:                                              ; preds = %155
  %157 = load i32, ptr %14, align 4, !tbaa !9
  %158 = add nsw i32 %157, 1
  store i32 %158, ptr %14, align 4, !tbaa !9
  br label %22, !llvm.loop !132

159:                                              ; preds = %22
  store i32 0, ptr %6, align 4
  store i32 1, ptr %17, align 4
  br label %160

160:                                              ; preds = %159, %152, %110, %83, %52
  call void @llvm.lifetime.end.p0(i64 4, ptr %15) #9
  call void @llvm.lifetime.end.p0(i64 4, ptr %14) #9
  call void @llvm.lifetime.end.p0(i64 4, ptr %13) #9
  call void @llvm.lifetime.end.p0(i64 8, ptr %12) #9
  %161 = load i32, ptr %6, align 4
  ret i32 %161
}