; Function Attrs: nounwind uwtable
define i32 @pmix_bfrops_base_pack_query(ptr noundef %0, ptr noundef %1, ptr noundef %2, i32 noundef %3, i16 noundef zeroext %4) local_unnamed_addr #0 {
  %6 = alloca i32, align 4
  call void @llvm.lifetime.start.p0(i64 4, ptr nonnull %6) #8
  %7 = getelementptr inbounds nuw i8, ptr %0, i64 152
  %8 = icmp sgt i32 %3, 0
  br i1 %8, label %.lr.ph, label %.thread

.lr.ph:                                           ; preds = %5
  %9 = getelementptr inbounds nuw i8, ptr %0, i64 128
  %wide.trip.count = zext nneg i32 %3 to i64
  br label %10

10:                                               ; preds = %.lr.ph, %63
  %indvars.iv = phi i64 [ 0, %.lr.ph ], [ %indvars.iv.next, %63 ]
  %11 = getelementptr inbounds nuw %struct.pmix_query, ptr %2, i64 %indvars.iv
  %12 = load ptr, ptr %11, align 8, !tbaa !97
  %13 = call i32 @PMIx_Argv_count(ptr noundef %12) #8
  store i32 %13, ptr %6, align 4, !tbaa !3
  %14 = load i32, ptr %9, align 8, !tbaa !15
  %.not.i = icmp sgt i32 %14, 9
  br i1 %.not.i, label %pmix_pointer_array_get_item.exit, label %.thread, !prof !18

pmix_pointer_array_get_item.exit:                 ; preds = %10
  %15 = load ptr, ptr %7, align 8, !tbaa !19
  %16 = getelementptr inbounds nuw i8, ptr %15, i64 72
  %17 = load ptr, ptr %16, align 8, !tbaa !20
  %18 = icmp eq ptr %17, null
  br i1 %18, label %.thread, label %19

19:                                               ; preds = %pmix_pointer_array_get_item.exit
  %20 = getelementptr inbounds nuw i8, ptr %17, i64 136
  %21 = load ptr, ptr %20, align 8, !tbaa !21
  %22 = call i32 %21(ptr noundef nonnull %0, ptr noundef %1, ptr noundef nonnull %6, i32 noundef 1, i16 noundef zeroext 9) #8
  %.not = icmp eq i32 %22, 0
  br i1 %.not, label %23, label %.thread

23:                                               ; preds = %19
  %24 = load i32, ptr %6, align 4, !tbaa !3
  %25 = icmp sgt i32 %24, 0
  br i1 %25, label %26, label %37

26:                                               ; preds = %23
  %27 = load i32, ptr %9, align 8, !tbaa !15
  %.not.i54 = icmp sgt i32 %27, 3
  br i1 %.not.i54, label %pmix_pointer_array_get_item.exit56, label %.thread, !prof !18

pmix_pointer_array_get_item.exit56:               ; preds = %26
  %28 = load ptr, ptr %7, align 8, !tbaa !19
  %29 = getelementptr inbounds nuw i8, ptr %28, i64 24
  %30 = load ptr, ptr %29, align 8, !tbaa !20
  %31 = icmp eq ptr %30, null
  br i1 %31, label %.thread, label %32

32:                                               ; preds = %pmix_pointer_array_get_item.exit56
  %33 = getelementptr inbounds nuw i8, ptr %30, i64 136
  %34 = load ptr, ptr %33, align 8, !tbaa !21
  %35 = load ptr, ptr %11, align 8, !tbaa !97
  %36 = call i32 %34(ptr noundef nonnull %0, ptr noundef %1, ptr noundef %35, i32 noundef %24, i16 noundef zeroext 3) #8
  %.not50 = icmp eq i32 %36, 0
  br i1 %.not50, label %37, label %.thread

37:                                               ; preds = %23, %32
  %38 = load i32, ptr %9, align 8, !tbaa !15
  %.not.i57 = icmp sgt i32 %38, 4
  br i1 %.not.i57, label %pmix_pointer_array_get_item.exit59, label %.thread, !prof !18

pmix_pointer_array_get_item.exit59:               ; preds = %37
  %39 = load ptr, ptr %7, align 8, !tbaa !19
  %40 = getelementptr inbounds nuw i8, ptr %39, i64 32
  %41 = load ptr, ptr %40, align 8, !tbaa !20
  %42 = icmp eq ptr %41, null
  br i1 %42, label %.thread, label %43

43:                                               ; preds = %pmix_pointer_array_get_item.exit59
  %44 = getelementptr inbounds nuw i8, ptr %41, i64 136
  %45 = load ptr, ptr %44, align 8, !tbaa !21
  %46 = getelementptr inbounds nuw i8, ptr %11, i64 16
  %47 = call i32 %45(ptr noundef nonnull %0, ptr noundef %1, ptr noundef nonnull %46, i32 noundef 1, i16 noundef zeroext 4) #8
  %.not51 = icmp eq i32 %47, 0
  br i1 %.not51, label %48, label %.thread

48:                                               ; preds = %43
  %49 = load i64, ptr %46, align 8, !tbaa !99
  %.not52 = icmp eq i64 %49, 0
  br i1 %.not52, label %63, label %50

50:                                               ; preds = %48
  %51 = load i32, ptr %9, align 8, !tbaa !15
  %.not.i60 = icmp sgt i32 %51, 24
  br i1 %.not.i60, label %pmix_pointer_array_get_item.exit62, label %.thread, !prof !18

pmix_pointer_array_get_item.exit62:               ; preds = %50
  %52 = load ptr, ptr %7, align 8, !tbaa !19
  %53 = getelementptr inbounds nuw i8, ptr %52, i64 192
  %54 = load ptr, ptr %53, align 8, !tbaa !20
  %55 = icmp eq ptr %54, null
  br i1 %55, label %.thread, label %56

56:                                               ; preds = %pmix_pointer_array_get_item.exit62
  %57 = getelementptr inbounds nuw i8, ptr %54, i64 136
  %58 = load ptr, ptr %57, align 8, !tbaa !21
  %59 = getelementptr inbounds nuw i8, ptr %11, i64 8
  %60 = load ptr, ptr %59, align 8, !tbaa !100
  %61 = trunc i64 %49 to i32
  %62 = call i32 %58(ptr noundef nonnull %0, ptr noundef %1, ptr noundef %60, i32 noundef %61, i16 noundef zeroext 24) #8
  %.not53 = icmp eq i32 %62, 0
  br i1 %.not53, label %63, label %.thread

63:                                               ; preds = %48, %56
  %indvars.iv.next = add nuw nsw i64 %indvars.iv, 1
  %exitcond.not = icmp eq i64 %indvars.iv.next, %wide.trip.count
  br i1 %exitcond.not, label %.thread, label %10, !llvm.loop !101

.thread:                                          ; preds = %19, %32, %43, %56, %63, %pmix_pointer_array_get_item.exit, %10, %pmix_pointer_array_get_item.exit56, %26, %pmix_pointer_array_get_item.exit59, %37, %pmix_pointer_array_get_item.exit62, %50, %5
  %.0 = phi i32 [ 0, %5 ], [ -16, %50 ], [ -16, %pmix_pointer_array_get_item.exit62 ], [ -16, %37 ], [ -16, %pmix_pointer_array_get_item.exit59 ], [ -16, %26 ], [ -16, %pmix_pointer_array_get_item.exit56 ], [ -16, %10 ], [ -16, %pmix_pointer_array_get_item.exit ], [ 0, %63 ], [ %62, %56 ], [ %47, %43 ], [ %36, %32 ], [ %22, %19 ]
  call void @llvm.lifetime.end.p0(i64 4, ptr nonnull %6) #8
  ret i32 %.0
}